target datalayout = "e-m:e-p270:32:32-p271:32:32-p272:64:64-i64:64-i128:128-f80:128-n8:16:32:64-S128"
target triple = "x86_64-pc-linux-gnu"

%"class.LIEF::ELF::CoreAuxv" = type { %"class.LIEF::ELF::Note", i32, i32 }
%"class.LIEF::ELF::Note" = type { %"class.LIEF::Object", %"class.std::__cxx11::basic_string", i32, i32, %"class.std::vector", %"class.std::__cxx11::basic_string" }
%"class.LIEF::Object" = type { ptr }
%"class.std::vector" = type { %"struct.std::_Vector_base" }
%"struct.std::_Vector_base" = type { %"struct.std::_Vector_base<unsigned char, std::allocator<unsigned char>>::_Vector_impl" }
%"struct.std::_Vector_base<unsigned char, std::allocator<unsigned char>>::_Vector_impl" = type { %"struct.std::_Vector_base<unsigned char, std::allocator<unsigned char>>::_Vector_impl_data" }
%"struct.std::_Vector_base<unsigned char, std::allocator<unsigned char>>::_Vector_impl_data" = type { ptr, ptr, ptr }
%"class.std::__cxx11::basic_string" = type { %"struct.std::__cxx11::basic_string<char>::_Alloc_hider", i64, %union.anon.0 }
%"struct.std::__cxx11::basic_string<char>::_Alloc_hider" = type { ptr }
%union.anon.0 = type { i64, [8 x i8] }
%"class.std::map" = type { %"class.std::_Rb_tree" }
%"class.std::_Rb_tree" = type { %"struct.std::_Rb_tree<LIEF::ELF::CoreAuxv::TYPE, std::pair<const LIEF::ELF::CoreAuxv::TYPE, unsigned long>, std::_Select1st<std::pair<const LIEF::ELF::CoreAuxv::TYPE, unsigned long>>, std::less<LIEF::ELF::CoreAuxv::TYPE>>::_Rb_tree_impl" }
%"struct.std::_Rb_tree<LIEF::ELF::CoreAuxv::TYPE, std::pair<const LIEF::ELF::CoreAuxv::TYPE, unsigned long>, std::_Select1st<std::pair<const LIEF::ELF::CoreAuxv::TYPE, unsigned long>>, std::less<LIEF::ELF::CoreAuxv::TYPE>>::_Rb_tree_impl" = type { [8 x i8], %"struct.std::_Rb_tree_header" }
%"struct.std::_Rb_tree_header" = type { %"struct.std::_Rb_tree_node_base", i64 }
%"struct.std::_Rb_tree_node_base" = type { i32, ptr, ptr, ptr }

; Function Attrs: mustprogress nounwind uwtable
define linkonce_odr hidden noundef ptr @_ZNKSt8_Rb_treeIN4LIEF3ELF8CoreAuxv4TYPEESt4pairIKS3_mESt10_Select1stIS6_ESt4lessIS3_ESaIS6_EE9_M_mbeginEv(ptr noundef nonnull align 8 dereferenceable(48) %0) #0 comdat align 2 {
  %2 = alloca ptr, align 8
  store ptr %0, ptr %2, align 8, !tbaa !80
  %3 = load ptr, ptr %2, align 8
  %4 = getelementptr inbounds nuw %"class.std::_Rb_tree", ptr %3, i32 0, i32 0
  %5 = getelementptr inbounds i8, ptr %4, i64 8
  %6 = getelementptr inbounds nuw %"struct.std::_Rb_tree_header", ptr %5, i32 0, i32 0
  %7 = getelementptr inbounds nuw %"struct.std::_Rb_tree_node_base", ptr %6, i32 0, i32 1
  %8 = load ptr, ptr %7, align 8, !tbaa !95
  ret ptr %8
}

; Function Attrs: mustprogress nounwind uwtable
define linkonce_odr hidden void @_ZNSt15__new_allocatorISt13_Rb_tree_nodeISt4pairIKN4LIEF3ELF8CoreAuxv4TYPEEmEEED2Ev(ptr noundef nonnull align 1 dereferenceable(1) %0) unnamed_addr #0 comdat align 2 {
  %2 = alloca ptr, align 8
  store ptr %0, ptr %2, align 8, !tbaa !85
  ret void
}

; Function Attrs: mustprogress nounwind uwtable
define linkonce_odr hidden noundef ptr @_ZNSt8_Rb_treeIN4LIEF3ELF8CoreAuxv4TYPEESt4pairIKS3_mESt10_Select1stIS6_ESt4lessIS3_ESaIS6_EE8_M_beginEv(ptr noundef nonnull align 8 dereferenceable(48) %0) #0 comdat align 2 {
  %2 = alloca ptr, align 8
  store ptr %0, ptr %2, align 8, !tbaa !80
  %3 = load ptr, ptr %2, align 8
  %4 = call noundef ptr @_ZNKSt8_Rb_treeIN4LIEF3ELF8CoreAuxv4TYPEESt4pairIKS3_mESt10_Select1stIS6_ESt4lessIS3_ESaIS6_EE9_M_mbeginEv(ptr noundef nonnull align 8 dereferenceable(48) %3) #20
  ret ptr %4
}

; Function Attrs: mustprogress nounwind uwtable
define linkonce_odr hidden void @_ZNSt8_Rb_treeIN4LIEF3ELF8CoreAuxv4TYPEESt4pairIKS3_mESt10_Select1stIS6_ESt4lessIS3_ESaIS6_EED2Ev(ptr noundef nonnull align 8 dereferenceable(48) %0) unnamed_addr #0 comdat align 2 {
  %2 = alloca ptr, align 8
  store ptr %0, ptr %2, align 8, !tbaa !80
  %3 = load ptr, ptr %2, align 8
  %4 = call noundef ptr @_ZNSt8_Rb_treeIN4LIEF3ELF8CoreAuxv4TYPEESt4pairIKS3_mESt10_Select1stIS6_ESt4lessIS3_ESaIS6_EE8_M_beginEv(ptr noundef nonnull align 8 dereferenceable(48) %3) #20
  call void @_ZNSt8_Rb_treeIN4LIEF3ELF8CoreAuxv4TYPEESt4pairIKS3_mESt10_Select1stIS6_ESt4lessIS3_ESaIS6_EE8_M_eraseEPSt13_Rb_tree_nodeIS6_E(ptr noundef nonnull align 8 dereferenceable(48) %3, ptr noundef %4)
  %5 = getelementptr inbounds nuw %"class.std::_Rb_tree", ptr %3, i32 0, i32 0
  call void @_ZNSt15__new_allocatorISt13_Rb_tree_nodeISt4pairIKN4LIEF3ELF8CoreAuxv4TYPEEmEEED2Ev(ptr noundef nonnull align 8 dereferenceable(48) %5) #20
  ret void
}

; Function Attrs: mustprogress nounwind uwtable
define linkonce_odr hidden void @_ZNSt3mapIN4LIEF3ELF8CoreAuxv4TYPEEmSt4lessIS3_ESaISt4pairIKS3_mEEED2Ev(ptr noundef nonnull align 8 dereferenceable(48) %0) unnamed_addr #0 comdat align 2 {
  %2 = alloca ptr, align 8
  store ptr %0, ptr %2, align 8, !tbaa !40
  %3 = load ptr, ptr %2, align 8
  %4 = getelementptr inbounds nuw %"class.std::map", ptr %3, i32 0, i32 0
  call void @_ZNSt8_Rb_treeIN4LIEF3ELF8CoreAuxv4TYPEESt4pairIKS3_mESt10_Select1stIS6_ESt4lessIS3_ESaIS6_EED2Ev(ptr noundef nonnull align 8 dereferenceable(48) %4) #20
  ret void
}

; Function Attrs: mustprogress nounwind uwtable
define noundef zeroext i1 @_ZN4LIEF3ELF8CoreAuxv3setERKSt3mapINS1_4TYPEEmSt4lessIS3_ESaISt4pairIKS3_mEEE(ptr noundef nonnull align 8 dereferenceable(112) %0, ptr noundef nonnull align 8 dereferenceable(48) %1) #0 align 2 {
  %3 = alloca ptr, align 8
  %4 = alloca ptr, align 8
  store ptr %0, ptr %3, align 8, !tbaa !3
  store ptr %1, ptr %4, align 8, !tbaa !40
  %5 = load ptr, ptr %3, align 8
  %6 = getelementptr inbounds nuw %"class.LIEF::ELF::CoreAuxv", ptr %5, i32 0, i32 2
  %7 = load i32, ptr %6, align 4, !tbaa !10
  %8 = icmp eq i32 %7, 1
  br i1 %8, label %9, label %13

9:                                                ; preds = %2
  %10 = getelementptr inbounds nuw %"class.LIEF::ELF::Note", ptr %5, i32 0, i32 4
  %11 = load ptr, ptr %4, align 8, !tbaa !40
  %12 = call noundef zeroext i1 @_ZN4LIEF3ELF10write_implINS0_7details5ELF32EEEbRSt6vectorIhSaIhEERKSt3mapINS0_8CoreAuxv4TYPEEmSt4lessISA_ESaISt4pairIKSA_mEEE(ptr noundef nonnull align 8 dereferenceable(24) %10, ptr noundef nonnull align 8 dereferenceable(48) %11)
  br label %17

13:                                               ; preds = %2
  %14 = getelementptr inbounds nuw %"class.LIEF::ELF::Note", ptr %5, i32 0, i32 4
  %15 = load ptr, ptr %4, align 8, !tbaa !40
  %16 = call noundef zeroext i1 @_ZN4LIEF3ELF10write_implINS0_7details5ELF64EEEbRSt6vectorIhSaIhEERKSt3mapINS0_8CoreAuxv4TYPEEmSt4lessISA_ESaISt4pairIKSA_mEEE(ptr noundef nonnull align 8 dereferenceable(24) %14, ptr noundef nonnull align 8 dereferenceable(48) %15)
  br label %17

17:                                               ; preds = %13, %9
  %18 = phi i1 [ %12, %9 ], [ %16, %13 ]
  ret i1 %18
}

; Function Attrs: mustprogress nounwind uwtable
define void @_ZNK4LIEF3ELF8CoreAuxv6valuesEv(ptr dead_on_unwind noalias writable sret(%"class.std::map") align 8 %0, ptr noundef nonnull align 8 dereferenceable(112) %1) #0 align 2 {
  %3 = alloca ptr, align 8
  %4 = alloca ptr, align 8
  store ptr %0, ptr %3, align 8
  store ptr %1, ptr %4, align 8, !tbaa !3
  %5 = load ptr, ptr %4, align 8
  %6 = getelementptr inbounds nuw %"class.LIEF::ELF::CoreAuxv", ptr %5, i32 0, i32 2
  %7 = load i32, ptr %6, align 4, !tbaa !10
  %8 = icmp eq i32 %7, 1
  br i1 %8, label %9, label %11

9:                                                ; preds = %2
  %10 = getelementptr inbounds nuw %"class.LIEF::ELF::Note", ptr %5, i32 0, i32 4
  call void @_ZN4LIEF3ELF15get_values_implINS0_7details5ELF32EEESt3mapINS0_8CoreAuxv4TYPEEmSt4lessIS6_ESaISt4pairIKS6_mEEERKSt6vectorIhSaIhEE(ptr dead_on_unwind writable sret(%"class.std::map") align 8 %0, ptr noundef nonnull align 8 dereferenceable(24) %10)
  br label %13

11:                                               ; preds = %2
  %12 = getelementptr inbounds nuw %"class.LIEF::ELF::Note", ptr %5, i32 0, i32 4
  call void @_ZN4LIEF3ELF15get_values_implINS0_7details5ELF64EEESt3mapINS0_8CoreAuxv4TYPEEmSt4lessIS6_ESaISt4pairIKS6_mEEERKSt6vectorIhSaIhEE(ptr dead_on_unwind writable sret(%"class.std::map") align 8 %0, ptr noundef nonnull align 8 dereferenceable(24) %12)
  br label %13

13:                                               ; preds = %11, %9
  ret void
}

; Function Attrs: mustprogress nounwind uwtable
define noundef zeroext i1 @_ZN4LIEF3ELF8CoreAuxv3setENS1_4TYPEEm(ptr noundef nonnull align 8 dereferenceable(112) %0, i32 noundef %1, i64 noundef %2) #0 align 2 {
  %4 = alloca ptr, align 8
  %5 = alloca i32, align 4
  %6 = alloca i64, align 8
  %7 = alloca %"class.std::map", align 8
  store ptr %0, ptr %4, align 8, !tbaa !3
  store i32 %1, ptr %5, align 4, !tbaa !8
  store i64 %2, ptr %6, align 8, !tbaa !32
  %8 = load ptr, ptr %4, align 8
  call void @llvm.lifetime.start.p0(i64 48, ptr %7) #20
  call void @_ZNK4LIEF3ELF8CoreAuxv6valuesEv(ptr dead_on_unwind writable sret(%"class.std::map") align 8 %7, ptr noundef nonnull align 8 dereferenceable(112) %8)
  %9 = load i64, ptr %6, align 8, !tbaa !32
  %10 = call noundef nonnull align 8 dereferenceable(8) ptr @_ZNSt3mapIN4LIEF3ELF8CoreAuxv4TYPEEmSt4lessIS3_ESaISt4pairIKS3_mEEEixERS7_(ptr noundef nonnull align 8 dereferenceable(48) %7, ptr noundef nonnull align 4 dereferenceable(4) %5)
  store i64 %9, ptr %10, align 8, !tbaa !32
  %11 = call noundef zeroext i1 @_ZN4LIEF3ELF8CoreAuxv3setERKSt3mapINS1_4TYPEEmSt4lessIS3_ESaISt4pairIKS3_mEEE(ptr noundef nonnull align 8 dereferenceable(112) %8, ptr noundef nonnull align 8 dereferenceable(48) %7)
  call void @_ZNSt3mapIN4LIEF3ELF8CoreAuxv4TYPEEmSt4lessIS3_ESaISt4pairIKS3_mEEED2Ev(ptr noundef nonnull align 8 dereferenceable(48) %7) #20
  call void @llvm.lifetime.end.p0(i64 48, ptr %7) #20
  ret i1 %11
}