; Function Attrs: mustprogress nounwind uwtable
define noundef zeroext i1 @_ZN4LIEF3ELF8CoreAuxv3setENS1_4TYPEEm(ptr noundef nonnull align 8 dereferenceable(112) %0, i32 noundef %1, i64 noundef %2) local_unnamed_addr #0 align 2 {
  %4 = alloca i32, align 4
  %5 = alloca %"class.std::map", align 8
  store i32 %1, ptr %4, align 4, !tbaa !65
  call void @llvm.lifetime.start.p0(i64 48, ptr nonnull %5) #23
  %6 = getelementptr inbounds nuw i8, ptr %0, i64 108
  %7 = load i32, ptr %6, align 4, !tbaa !3, !noalias !78
  %8 = icmp eq i32 %7, 1
  %9 = getelementptr inbounds nuw i8, ptr %0, i64 48
  br i1 %8, label %10, label %11

10:                                               ; preds = %3
  call void @_ZN4LIEF3ELF15get_values_implINS0_7details5ELF32EEESt3mapINS0_8CoreAuxv4TYPEEmSt4lessIS6_ESaISt4pairIKS6_mEEERKSt6vectorIhSaIhEE(ptr dead_on_unwind nonnull writable sret(%"class.std::map") align 8 %5, ptr noundef nonnull align 8 dereferenceable(24) %9)
  br label %_ZNK4LIEF3ELF8CoreAuxv6valuesEv.exit

11:                                               ; preds = %3
  call void @_ZN4LIEF3ELF15get_values_implINS0_7details5ELF64EEESt3mapINS0_8CoreAuxv4TYPEEmSt4lessIS6_ESaISt4pairIKS6_mEEERKSt6vectorIhSaIhEE(ptr dead_on_unwind nonnull writable sret(%"class.std::map") align 8 %5, ptr noundef nonnull align 8 dereferenceable(24) %9)
  br label %_ZNK4LIEF3ELF8CoreAuxv6valuesEv.exit

_ZNK4LIEF3ELF8CoreAuxv6valuesEv.exit:             ; preds = %10, %11
  %12 = call noundef nonnull align 8 dereferenceable(8) ptr @_ZNSt3mapIN4LIEF3ELF8CoreAuxv4TYPEEmSt4lessIS3_ESaISt4pairIKS3_mEEEixERS7_(ptr noundef nonnull align 8 dereferenceable(48) %5, ptr noundef nonnull align 4 dereferenceable(4) %4)
  store i64 %2, ptr %12, align 8, !tbaa !30
  %13 = load i32, ptr %6, align 4, !tbaa !3
  %14 = icmp eq i32 %13, 1
  br i1 %14, label %15, label %17

15:                                               ; preds = %_ZNK4LIEF3ELF8CoreAuxv6valuesEv.exit
  %16 = call noundef zeroext i1 @_ZN4LIEF3ELF10write_implINS0_7details5ELF32EEEbRSt6vectorIhSaIhEERKSt3mapINS0_8CoreAuxv4TYPEEmSt4lessISA_ESaISt4pairIKSA_mEEE(ptr noundef nonnull align 8 dereferenceable(24) %9, ptr noundef nonnull align 8 dereferenceable(48) %5)
  br label %_ZN4LIEF3ELF8CoreAuxv3setERKSt3mapINS1_4TYPEEmSt4lessIS3_ESaISt4pairIKS3_mEEE.exit

17:                                               ; preds = %_ZNK4LIEF3ELF8CoreAuxv6valuesEv.exit
  %18 = call noundef zeroext i1 @_ZN4LIEF3ELF10write_implINS0_7details5ELF64EEEbRSt6vectorIhSaIhEERKSt3mapINS0_8CoreAuxv4TYPEEmSt4lessISA_ESaISt4pairIKSA_mEEE(ptr noundef nonnull align 8 dereferenceable(24) %9, ptr noundef nonnull align 8 dereferenceable(48) %5)
  br label %_ZN4LIEF3ELF8CoreAuxv3setERKSt3mapINS1_4TYPEEmSt4lessIS3_ESaISt4pairIKS3_mEEE.exit

_ZN4LIEF3ELF8CoreAuxv3setERKSt3mapINS1_4TYPEEmSt4lessIS3_ESaISt4pairIKS3_mEEE.exit: ; preds = %15, %17
  %19 = phi i1 [ %16, %15 ], [ %18, %17 ]
  %20 = getelementptr inbounds nuw i8, ptr %5, i64 16
  %21 = load ptr, ptr %20, align 8, !tbaa !61
  call void @_ZNSt8_Rb_treeIN4LIEF3ELF8CoreAuxv4TYPEESt4pairIKS3_mESt10_Select1stIS6_ESt4lessIS3_ESaIS6_EE8_M_eraseEPSt13_Rb_tree_nodeIS6_E(ptr noundef nonnull align 8 dereferenceable(48) %5, ptr noundef %21)
  call void @llvm.lifetime.end.p0(i64 48, ptr nonnull %5) #23
  ret i1 %19
}